target datalayout = "e-m:e-p270:32:32-p271:32:32-p272:64:64-i64:64-i128:128-f80:128-n8:16:32:64-S128"
target triple = "x86_64-pc-linux-gnu"

%struct.PaUtilBufferProcessor = type { i64, i64, i32, i32, i32, i32, i64, i32, i32, i32, i32, ptr, ptr, i32, i32, i32, i32, ptr, ptr, i64, i64, ptr, ptr, i64, ptr, ptr, i64, ptr, i64, i32, [2 x i64], [2 x ptr], i32, [2 x i64], [2 x ptr], %struct.PaUtilTriangularDitherGenerator, double, ptr, ptr }
%struct.PaUtilTriangularDitherGenerator = type { i32, i32, i32 }

; Function Attrs: nounwind uwtable
define void @PaUtil_TerminateBufferProcessor(ptr noundef %0) #0 {
  %2 = alloca ptr, align 8
  store ptr %0, ptr %2, align 8
  %3 = load ptr, ptr %2, align 8
  %4 = getelementptr inbounds nuw %struct.PaUtilBufferProcessor, ptr %3, i32 0, i32 21
  %5 = load ptr, ptr %4, align 8
  %6 = icmp ne ptr %5, null
  br i1 %6, label %7, label %11

7:                                                ; preds = %1
  %8 = load ptr, ptr %2, align 8
  %9 = getelementptr inbounds nuw %struct.PaUtilBufferProcessor, ptr %8, i32 0, i32 21
  %10 = load ptr, ptr %9, align 8
  call void @PaUtil_FreeMemory(ptr noundef %10)
  br label %11

11:                                               ; preds = %7, %1
  %12 = load ptr, ptr %2, align 8
  %13 = getelementptr inbounds nuw %struct.PaUtilBufferProcessor, ptr %12, i32 0, i32 22
  %14 = load ptr, ptr %13, align 8
  %15 = icmp ne ptr %14, null
  br i1 %15, label %16, label %20

16:                                               ; preds = %11
  %17 = load ptr, ptr %2, align 8
  %18 = getelementptr inbounds nuw %struct.PaUtilBufferProcessor, ptr %17, i32 0, i32 22
  %19 = load ptr, ptr %18, align 8
  call void @PaUtil_FreeMemory(ptr noundef %19)
  br label %20

20:                                               ; preds = %16, %11
  %21 = load ptr, ptr %2, align 8
  %22 = getelementptr inbounds nuw %struct.PaUtilBufferProcessor, ptr %21, i32 0, i32 31
  %23 = getelementptr inbounds [2 x ptr], ptr %22, i64 0, i64 0
  %24 = load ptr, ptr %23, align 8
  %25 = icmp ne ptr %24, null
  br i1 %25, label %26, label %31

26:                                               ; preds = %20
  %27 = load ptr, ptr %2, align 8
  %28 = getelementptr inbounds nuw %struct.PaUtilBufferProcessor, ptr %27, i32 0, i32 31
  %29 = getelementptr inbounds [2 x ptr], ptr %28, i64 0, i64 0
  %30 = load ptr, ptr %29, align 8
  call void @PaUtil_FreeMemory(ptr noundef %30)
  br label %31

31:                                               ; preds = %26, %20
  %32 = load ptr, ptr %2, align 8
  %33 = getelementptr inbounds nuw %struct.PaUtilBufferProcessor, ptr %32, i32 0, i32 24
  %34 = load ptr, ptr %33, align 8
  %35 = icmp ne ptr %34, null
  br i1 %35, label %36, label %40

36:                                               ; preds = %31
  %37 = load ptr, ptr %2, align 8
  %38 = getelementptr inbounds nuw %struct.PaUtilBufferProcessor, ptr %37, i32 0, i32 24
  %39 = load ptr, ptr %38, align 8
  call void @PaUtil_FreeMemory(ptr noundef %39)
  br label %40

40:                                               ; preds = %36, %31
  %41 = load ptr, ptr %2, align 8
  %42 = getelementptr inbounds nuw %struct.PaUtilBufferProcessor, ptr %41, i32 0, i32 25
  %43 = load ptr, ptr %42, align 8
  %44 = icmp ne ptr %43, null
  br i1 %44, label %45, label %49

45:                                               ; preds = %40
  %46 = load ptr, ptr %2, align 8
  %47 = getelementptr inbounds nuw %struct.PaUtilBufferProcessor, ptr %46, i32 0, i32 25
  %48 = load ptr, ptr %47, align 8
  call void @PaUtil_FreeMemory(ptr noundef %48)
  br label %49

49:                                               ; preds = %45, %40
  %50 = load ptr, ptr %2, align 8
  %51 = getelementptr inbounds nuw %struct.PaUtilBufferProcessor, ptr %50, i32 0, i32 34
  %52 = getelementptr inbounds [2 x ptr], ptr %51, i64 0, i64 0
  %53 = load ptr, ptr %52, align 8
  %54 = icmp ne ptr %53, null
  br i1 %54, label %55, label %60

55:                                               ; preds = %49
  %56 = load ptr, ptr %2, align 8
  %57 = getelementptr inbounds nuw %struct.PaUtilBufferProcessor, ptr %56, i32 0, i32 34
  %58 = getelementptr inbounds [2 x ptr], ptr %57, i64 0, i64 0
  %59 = load ptr, ptr %58, align 8
  call void @PaUtil_FreeMemory(ptr noundef %59)
  br label %60

60:                                               ; preds = %55, %49
  ret void
}