; Function Attrs: nounwind uwtable
define void @PaUtil_TerminateBufferProcessor(ptr nocapture noundef readonly %0) local_unnamed_addr #0 {
  %2 = getelementptr inbounds nuw i8, ptr %0, i64 120
  %3 = load ptr, ptr %2, align 8
  %.not = icmp eq ptr %3, null
  br i1 %.not, label %5, label %4

4:                                                ; preds = %1
  tail call void @PaUtil_FreeMemory(ptr noundef nonnull %3) #11
  br label %5

5:                                                ; preds = %4, %1
  %6 = getelementptr inbounds nuw i8, ptr %0, i64 128
  %7 = load ptr, ptr %6, align 8
  %.not17 = icmp eq ptr %7, null
  br i1 %.not17, label %9, label %8

8:                                                ; preds = %5
  tail call void @PaUtil_FreeMemory(ptr noundef nonnull %7) #11
  br label %9

9:                                                ; preds = %8, %5
  %10 = getelementptr inbounds nuw i8, ptr %0, i64 208
  %11 = load ptr, ptr %10, align 8
  %.not18 = icmp eq ptr %11, null
  br i1 %.not18, label %13, label %12

12:                                               ; preds = %9
  tail call void @PaUtil_FreeMemory(ptr noundef nonnull %11) #11
  br label %13

13:                                               ; preds = %12, %9
  %14 = getelementptr inbounds nuw i8, ptr %0, i64 144
  %15 = load ptr, ptr %14, align 8
  %.not19 = icmp eq ptr %15, null
  br i1 %.not19, label %17, label %16

16:                                               ; preds = %13
  tail call void @PaUtil_FreeMemory(ptr noundef nonnull %15) #11
  br label %17

17:                                               ; preds = %16, %13
  %18 = getelementptr inbounds nuw i8, ptr %0, i64 152
  %19 = load ptr, ptr %18, align 8
  %.not20 = icmp eq ptr %19, null
  br i1 %.not20, label %21, label %20

20:                                               ; preds = %17
  tail call void @PaUtil_FreeMemory(ptr noundef nonnull %19) #11
  br label %21

21:                                               ; preds = %20, %17
  %22 = getelementptr inbounds nuw i8, ptr %0, i64 248
  %23 = load ptr, ptr %22, align 8
  %.not21 = icmp eq ptr %23, null
  br i1 %.not21, label %25, label %24

24:                                               ; preds = %21
  tail call void @PaUtil_FreeMemory(ptr noundef nonnull %23) #11
  br label %25

25:                                               ; preds = %24, %21
  ret void
}